target datalayout = "e-m:e-p270:32:32-p271:32:32-p272:64:64-i64:64-i128:128-f80:128-n8:16:32:64-S128"
target triple = "x86_64-pc-linux-gnu"

@.str = private unnamed_addr constant [13 x i8] c"<No address>\00", align 1

; Function Attrs: null_pointer_is_valid sspstrong uwtable
define hidden ptr @tvb_arphrdaddr_to_str(ptr noundef %0, ptr noundef %1, i32 noundef %2, i32 noundef %3, i16 noundef zeroext %4) #0 {
  %6 = alloca ptr, align 8
  %7 = alloca ptr, align 8
  %8 = alloca ptr, align 8
  %9 = alloca i32, align 4
  %10 = alloca i32, align 4
  %11 = alloca i16, align 2
  store ptr %0, ptr %7, align 8
  store ptr %1, ptr %8, align 8
  store i32 %2, ptr %9, align 4
  store i32 %3, ptr %10, align 4
  store i16 %4, ptr %11, align 2
  %12 = load i32, ptr %10, align 4
  %13 = icmp eq i32 %12, 0
  br i1 %13, label %14, label %15

14:                                               ; preds = %5
  store ptr @.str, ptr %6, align 8
  br label %37

15:                                               ; preds = %5
  %16 = load i16, ptr %11, align 2
  %17 = zext i16 %16 to i32
  %18 = icmp eq i32 %17, 1
  br i1 %18, label %23, label %19

19:                                               ; preds = %15
  %20 = load i16, ptr %11, align 2
  %21 = zext i16 %20 to i32
  %22 = icmp eq i32 %21, 6
  br i1 %22, label %23, label %31

23:                                               ; preds = %19, %15
  %24 = load i32, ptr %10, align 4
  %25 = icmp eq i32 %24, 6
  br i1 %25, label %26, label %31

26:                                               ; preds = %23
  %27 = load ptr, ptr %7, align 8
  %28 = load ptr, ptr %8, align 8
  %29 = load i32, ptr %9, align 4
  %30 = call ptr @tvb_address_to_str(ptr noundef %27, ptr noundef %28, i32 noundef 1, i32 noundef %29)
  store ptr %30, ptr %6, align 8
  br label %37

31:                                               ; preds = %23, %19
  %32 = load ptr, ptr %7, align 8
  %33 = load ptr, ptr %8, align 8
  %34 = load i32, ptr %9, align 4
  %35 = load i32, ptr %10, align 4
  %36 = call ptr @tvb_bytes_to_str(ptr noundef %32, ptr noundef %33, i32 noundef %34, i32 noundef %35)
  store ptr %36, ptr %6, align 8
  br label %37

37:                                               ; preds = %31, %26, %14
  %38 = load ptr, ptr %6, align 8
  ret ptr %38
}