; Function Attrs: null_pointer_is_valid sspstrong uwtable
define hidden ptr @tvb_arphrdaddr_to_str(ptr noundef %0, ptr noundef %1, i32 noundef %2, i32 noundef %3, i16 noundef zeroext %4) local_unnamed_addr #0 {
  %6 = icmp eq i32 %3, 0
  br i1 %6, label %15, label %7

7:                                                ; preds = %5
  %8 = icmp eq i16 %4, 1
  %9 = icmp eq i16 %4, 6
  %or.cond = or i1 %8, %9
  %10 = icmp eq i32 %3, 6
  %or.cond4 = and i1 %10, %or.cond
  br i1 %or.cond4, label %11, label %13

11:                                               ; preds = %7
  %12 = tail call ptr @tvb_address_to_str(ptr noundef %0, ptr noundef %1, i32 noundef 1, i32 noundef %2)
  br label %15

13:                                               ; preds = %7
  %14 = tail call ptr @tvb_bytes_to_str(ptr noundef %0, ptr noundef %1, i32 noundef %2, i32 noundef %3)
  br label %15

15:                                               ; preds = %5, %13, %11
  %.0 = phi ptr [ %12, %11 ], [ %14, %13 ], [ @.str, %5 ]
  ret ptr %.0
}